target datalayout = "e-m:e-p270:32:32-p271:32:32-p272:64:64-i64:64-i128:128-f80:128-n8:16:32:64-S128"
target triple = "x86_64-pc-linux-gnu"

%struct._zend_refcounted_h = type { i32, %union.anon.4 }
%union.anon.4 = type { i32 }
%struct._zval_struct = type { %union._zend_value, %union.anon.0, %union.anon.3 }
%union._zend_value = type { i64 }
%union.anon.0 = type { i32 }
%union.anon.3 = type { i32 }
%struct._zend_ast_zval = type { i16, i16, %struct._zval_struct }
%struct._zend_string = type { %struct._zend_refcounted_h, i64, i64, [1 x i8] }
%struct._zend_ast = type { i16, i16, i32, [1 x ptr] }
%struct._zend_ast_list = type { i16, i16, i32, i32, [1 x ptr] }
%struct.smart_str = type { ptr, i64 }

; Function Attrs: nounwind uwtable
define internal zeroext i1 @zend_ast_valid_var_char(i8 noundef signext %0) #0 {
  %2 = alloca i1, align 1
  %3 = alloca i8, align 1
  %4 = alloca i8, align 1
  store i8 %0, ptr %3, align 1
  %5 = load i8, ptr %3, align 1
  store i8 %5, ptr %4, align 1
  %6 = load i8, ptr %4, align 1
  %7 = zext i8 %6 to i32
  %8 = icmp ne i32 %7, 95
  br i1 %8, label %9, label %38

9:                                                ; preds = %1
  %10 = load i8, ptr %4, align 1
  %11 = zext i8 %10 to i32
  %12 = icmp slt i32 %11, 127
  br i1 %12, label %13, label %38

13:                                               ; preds = %9
  %14 = load i8, ptr %4, align 1
  %15 = zext i8 %14 to i32
  %16 = icmp slt i32 %15, 48
  br i1 %16, label %21, label %17

17:                                               ; preds = %13
  %18 = load i8, ptr %4, align 1
  %19 = zext i8 %18 to i32
  %20 = icmp sgt i32 %19, 57
  br i1 %20, label %21, label %38

21:                                               ; preds = %17, %13
  %22 = load i8, ptr %4, align 1
  %23 = zext i8 %22 to i32
  %24 = icmp slt i32 %23, 65
  br i1 %24, label %29, label %25

25:                                               ; preds = %21
  %26 = load i8, ptr %4, align 1
  %27 = zext i8 %26 to i32
  %28 = icmp sgt i32 %27, 90
  br i1 %28, label %29, label %38

29:                                               ; preds = %25, %21
  %30 = load i8, ptr %4, align 1
  %31 = zext i8 %30 to i32
  %32 = icmp slt i32 %31, 97
  br i1 %32, label %37, label %33

33:                                               ; preds = %29
  %34 = load i8, ptr %4, align 1
  %35 = zext i8 %34 to i32
  %36 = icmp sgt i32 %35, 122
  br i1 %36, label %37, label %38

37:                                               ; preds = %33, %29
  store i1 false, ptr %2, align 1
  br label %39

38:                                               ; preds = %33, %25, %17, %9, %1
  store i1 true, ptr %2, align 1
  br label %39

39:                                               ; preds = %38, %37
  %40 = load i1, ptr %2, align 1
  ret i1 %40
}

; Function Attrs: nounwind uwtable
define internal zeroext i1 @zend_ast_var_needs_braces(i8 noundef signext %0) #0 {
  %2 = alloca i8, align 1
  store i8 %0, ptr %2, align 1
  %3 = load i8, ptr %2, align 1
  %4 = sext i8 %3 to i32
  %5 = icmp eq i32 %4, 91
  br i1 %5, label %9, label %6

6:                                                ; preds = %1
  %7 = load i8, ptr %2, align 1
  %8 = call zeroext i1 @zend_ast_valid_var_char(i8 noundef signext %7)
  br label %9

9:                                                ; preds = %6, %1
  %10 = phi i1 [ true, %1 ], [ %8, %6 ]
  ret i1 %10
}

; Function Attrs: nounwind uwtable
define internal void @zend_ast_export_encaps_list(ptr noundef %0, i8 noundef signext %1, ptr noundef %2, i32 noundef %3) #0 {
  %5 = alloca ptr, align 8
  %6 = alloca i64, align 8
  %7 = alloca i8, align 1
  %8 = alloca ptr, align 8
  %9 = alloca i8, align 1
  %10 = alloca i8, align 1
  %11 = alloca i64, align 8
  %12 = alloca ptr, align 8
  %13 = alloca i64, align 8
  %14 = alloca i8, align 1
  %15 = alloca ptr, align 8
  %16 = alloca i8, align 1
  %17 = alloca i8, align 1
  %18 = alloca i64, align 8
  %19 = alloca ptr, align 8
  %20 = alloca i8, align 1
  %21 = alloca ptr, align 8
  %22 = alloca i8, align 1
  %23 = alloca ptr, align 8
  %24 = alloca ptr, align 8
  %25 = alloca ptr, align 8
  %26 = alloca i8, align 1
  %27 = alloca ptr, align 8
  %28 = alloca i32, align 4
  %29 = alloca i32, align 4
  %30 = alloca ptr, align 8
  %31 = alloca ptr, align 8
  store ptr %0, ptr %25, align 8
  store i8 %1, ptr %26, align 1
  store ptr %2, ptr %27, align 8
  store i32 %3, ptr %28, align 4
  store i32 0, ptr %29, align 4
  br label %32

32:                                               ; preds = %222, %4
  %33 = load i32, ptr %29, align 4
  %34 = load ptr, ptr %27, align 8
  %35 = getelementptr inbounds %struct._zend_ast_list, ptr %34, i32 0, i32 3
  %36 = load i32, ptr %35, align 8
  %37 = icmp ult i32 %33, %36
  br i1 %37, label %38, label %225

38:                                               ; preds = %32
  %39 = load ptr, ptr %27, align 8
  %40 = getelementptr inbounds %struct._zend_ast_list, ptr %39, i32 0, i32 4
  %41 = load i32, ptr %29, align 4
  %42 = zext i32 %41 to i64
  %43 = getelementptr inbounds [1 x ptr], ptr %40, i64 0, i64 %42
  %44 = load ptr, ptr %43, align 8
  store ptr %44, ptr %30, align 8
  %45 = load ptr, ptr %30, align 8
  %46 = getelementptr inbounds %struct._zend_ast, ptr %45, i32 0, i32 0
  %47 = load i16, ptr %46, align 8
  %48 = zext i16 %47 to i32
  %49 = icmp eq i32 %48, 64
  br i1 %49, label %50, label %63

50:                                               ; preds = %38
  %51 = load ptr, ptr %30, align 8
  store ptr %51, ptr %23, align 8
  %52 = load ptr, ptr %23, align 8
  %53 = load i16, ptr %52, align 8
  %54 = zext i16 %53 to i32
  %55 = icmp eq i32 %54, 64
  call void @llvm.assume(i1 %55)
  %56 = load ptr, ptr %23, align 8
  %57 = getelementptr inbounds %struct._zend_ast_zval, ptr %56, i32 0, i32 2
  store ptr %57, ptr %31, align 8
  %58 = load ptr, ptr %25, align 8
  %59 = load i8, ptr %26, align 1
  %60 = load ptr, ptr %31, align 8
  %61 = getelementptr inbounds %struct._zval_struct, ptr %60, i32 0, i32 0
  %62 = load ptr, ptr %61, align 8
  call void @zend_ast_export_qstr(ptr noundef %58, i8 noundef signext %59, ptr noundef %62)
  br label %222

63:                                               ; preds = %38
  %64 = load ptr, ptr %30, align 8
  %65 = getelementptr inbounds %struct._zend_ast, ptr %64, i32 0, i32 0
  %66 = load i16, ptr %65, align 8
  %67 = zext i16 %66 to i32
  %68 = icmp eq i32 %67, 256
  br i1 %68, label %69, label %121

69:                                               ; preds = %63
  %70 = load ptr, ptr %30, align 8
  %71 = getelementptr inbounds %struct._zend_ast, ptr %70, i32 0, i32 3
  %72 = getelementptr inbounds [1 x ptr], ptr %71, i64 0, i64 0
  %73 = load ptr, ptr %72, align 8
  %74 = getelementptr inbounds %struct._zend_ast, ptr %73, i32 0, i32 0
  %75 = load i16, ptr %74, align 8
  %76 = zext i16 %75 to i32
  %77 = icmp eq i32 %76, 64
  br i1 %77, label %78, label %121

78:                                               ; preds = %69
  %79 = load i32, ptr %29, align 4
  %80 = add i32 %79, 1
  %81 = load ptr, ptr %27, align 8
  %82 = getelementptr inbounds %struct._zend_ast_list, ptr %81, i32 0, i32 3
  %83 = load i32, ptr %82, align 8
  %84 = icmp eq i32 %80, %83
  br i1 %84, label %117, label %85

85:                                               ; preds = %78
  %86 = load ptr, ptr %27, align 8
  %87 = getelementptr inbounds %struct._zend_ast_list, ptr %86, i32 0, i32 4
  %88 = load i32, ptr %29, align 4
  %89 = add i32 %88, 1
  %90 = zext i32 %89 to i64
  %91 = getelementptr inbounds [1 x ptr], ptr %87, i64 0, i64 %90
  %92 = load ptr, ptr %91, align 8
  %93 = getelementptr inbounds %struct._zend_ast, ptr %92, i32 0, i32 0
  %94 = load i16, ptr %93, align 8
  %95 = zext i16 %94 to i32
  %96 = icmp ne i32 %95, 64
  br i1 %96, label %117, label %97

97:                                               ; preds = %85
  %98 = load ptr, ptr %27, align 8
  %99 = getelementptr inbounds %struct._zend_ast_list, ptr %98, i32 0, i32 4
  %100 = load i32, ptr %29, align 4
  %101 = add i32 %100, 1
  %102 = zext i32 %101 to i64
  %103 = getelementptr inbounds [1 x ptr], ptr %99, i64 0, i64 %102
  %104 = load ptr, ptr %103, align 8
  store ptr %104, ptr %24, align 8
  %105 = load ptr, ptr %24, align 8
  %106 = load i16, ptr %105, align 8
  %107 = zext i16 %106 to i32
  %108 = icmp eq i32 %107, 64
  call void @llvm.assume(i1 %108)
  %109 = load ptr, ptr %24, align 8
  %110 = getelementptr inbounds %struct._zend_ast_zval, ptr %109, i32 0, i32 2
  %111 = getelementptr inbounds %struct._zval_struct, ptr %110, i32 0, i32 0
  %112 = load ptr, ptr %111, align 8
  %113 = getelementptr inbounds %struct._zend_string, ptr %112, i32 0, i32 3
  %114 = getelementptr inbounds [1 x i8], ptr %113, i64 0, i64 0
  %115 = load i8, ptr %114, align 8
  %116 = call zeroext i1 @zend_ast_var_needs_braces(i8 noundef signext %115)
  br i1 %116, label %121, label %117

117:                                              ; preds = %97, %85, %78
  %118 = load ptr, ptr %25, align 8
  %119 = load ptr, ptr %30, align 8
  %120 = load i32, ptr %28, align 4
  call void @zend_ast_export_ex(ptr noundef %118, ptr noundef %119, i32 noundef 0, i32 noundef %120)
  br label %221

121:                                              ; preds = %97, %69, %63
  %122 = load ptr, ptr %25, align 8
  store ptr %122, ptr %19, align 8
  store i8 123, ptr %20, align 1
  %123 = load ptr, ptr %19, align 8
  %124 = load i8, ptr %20, align 1
  store ptr %123, ptr %15, align 8
  store i8 %124, ptr %16, align 1
  store i8 0, ptr %17, align 1
  %125 = load ptr, ptr %15, align 8
  %126 = load i8, ptr %17, align 1
  %127 = trunc i8 %126 to i1
  store ptr %125, ptr %12, align 8
  store i64 1, ptr %13, align 8
  %128 = zext i1 %127 to i8
  store i8 %128, ptr %14, align 1
  %129 = load ptr, ptr %12, align 8
  %130 = load ptr, ptr %129, align 8
  %131 = icmp ne ptr %130, null
  %132 = xor i1 %131, true
  br i1 %132, label %133, label %134

133:                                              ; preds = %121
  br label %147

134:                                              ; preds = %121
  %135 = load ptr, ptr %12, align 8
  %136 = load ptr, ptr %135, align 8
  %137 = getelementptr inbounds %struct._zend_string, ptr %136, i32 0, i32 2
  %138 = load i64, ptr %137, align 8
  %139 = load i64, ptr %13, align 8
  %140 = add i64 %139, %138
  store i64 %140, ptr %13, align 8
  %141 = load i64, ptr %13, align 8
  %142 = load ptr, ptr %12, align 8
  %143 = getelementptr inbounds %struct.smart_str, ptr %142, i32 0, i32 1
  %144 = load i64, ptr %143, align 8
  %145 = icmp uge i64 %141, %144
  br i1 %145, label %146, label %157

146:                                              ; preds = %134
  br label %147

147:                                              ; preds = %146, %133
  %148 = load i8, ptr %14, align 1
  %149 = trunc i8 %148 to i1
  br i1 %149, label %150, label %153

150:                                              ; preds = %147
  %151 = load ptr, ptr %12, align 8
  %152 = load i64, ptr %13, align 8
  call void @smart_str_realloc(ptr noundef %151, i64 noundef %152) #10
  br label %156

153:                                              ; preds = %147
  %154 = load ptr, ptr %12, align 8
  %155 = load i64, ptr %13, align 8
  call void @smart_str_erealloc(ptr noundef %154, i64 noundef %155) #10
  br label %156

156:                                              ; preds = %153, %150
  br label %157

157:                                              ; preds = %156, %134
  %158 = load i64, ptr %13, align 8
  store i64 %158, ptr %18, align 8
  %159 = load i8, ptr %16, align 1
  %160 = load ptr, ptr %15, align 8
  %161 = load ptr, ptr %160, align 8
  %162 = getelementptr inbounds %struct._zend_string, ptr %161, i32 0, i32 3
  %163 = load i64, ptr %18, align 8
  %164 = sub i64 %163, 1
  %165 = getelementptr inbounds [1 x i8], ptr %162, i64 0, i64 %164
  store i8 %159, ptr %165, align 1
  %166 = load i64, ptr %18, align 8
  %167 = load ptr, ptr %15, align 8
  %168 = load ptr, ptr %167, align 8
  %169 = getelementptr inbounds %struct._zend_string, ptr %168, i32 0, i32 2
  store i64 %166, ptr %169, align 8
  %170 = load ptr, ptr %25, align 8
  %171 = load ptr, ptr %30, align 8
  %172 = load i32, ptr %28, align 4
  call void @zend_ast_export_ex(ptr noundef %170, ptr noundef %171, i32 noundef 0, i32 noundef %172)
  %173 = load ptr, ptr %25, align 8
  store ptr %173, ptr %21, align 8
  store i8 125, ptr %22, align 1
  %174 = load ptr, ptr %21, align 8
  %175 = load i8, ptr %22, align 1
  store ptr %174, ptr %8, align 8
  store i8 %175, ptr %9, align 1
  store i8 0, ptr %10, align 1
  %176 = load ptr, ptr %8, align 8
  %177 = load i8, ptr %10, align 1
  %178 = trunc i8 %177 to i1
  store ptr %176, ptr %5, align 8
  store i64 1, ptr %6, align 8
  %179 = zext i1 %178 to i8
  store i8 %179, ptr %7, align 1
  %180 = load ptr, ptr %5, align 8
  %181 = load ptr, ptr %180, align 8
  %182 = icmp ne ptr %181, null
  %183 = xor i1 %182, true
  br i1 %183, label %184, label %185

184:                                              ; preds = %157
  br label %198

185:                                              ; preds = %157
  %186 = load ptr, ptr %5, align 8
  %187 = load ptr, ptr %186, align 8
  %188 = getelementptr inbounds %struct._zend_string, ptr %187, i32 0, i32 2
  %189 = load i64, ptr %188, align 8
  %190 = load i64, ptr %6, align 8
  %191 = add i64 %190, %189
  store i64 %191, ptr %6, align 8
  %192 = load i64, ptr %6, align 8
  %193 = load ptr, ptr %5, align 8
  %194 = getelementptr inbounds %struct.smart_str, ptr %193, i32 0, i32 1
  %195 = load i64, ptr %194, align 8
  %196 = icmp uge i64 %192, %195
  br i1 %196, label %197, label %208

197:                                              ; preds = %185
  br label %198

198:                                              ; preds = %197, %184
  %199 = load i8, ptr %7, align 1
  %200 = trunc i8 %199 to i1
  br i1 %200, label %201, label %204

201:                                              ; preds = %198
  %202 = load ptr, ptr %5, align 8
  %203 = load i64, ptr %6, align 8
  call void @smart_str_realloc(ptr noundef %202, i64 noundef %203) #10
  br label %207

204:                                              ; preds = %198
  %205 = load ptr, ptr %5, align 8
  %206 = load i64, ptr %6, align 8
  call void @smart_str_erealloc(ptr noundef %205, i64 noundef %206) #10
  br label %207

207:                                              ; preds = %204, %201
  br label %208

208:                                              ; preds = %207, %185
  %209 = load i64, ptr %6, align 8
  store i64 %209, ptr %11, align 8
  %210 = load i8, ptr %9, align 1
  %211 = load ptr, ptr %8, align 8
  %212 = load ptr, ptr %211, align 8
  %213 = getelementptr inbounds %struct._zend_string, ptr %212, i32 0, i32 3
  %214 = load i64, ptr %11, align 8
  %215 = sub i64 %214, 1
  %216 = getelementptr inbounds [1 x i8], ptr %213, i64 0, i64 %215
  store i8 %210, ptr %216, align 1
  %217 = load i64, ptr %11, align 8
  %218 = load ptr, ptr %8, align 8
  %219 = load ptr, ptr %218, align 8
  %220 = getelementptr inbounds %struct._zend_string, ptr %219, i32 0, i32 2
  store i64 %217, ptr %220, align 8
  br label %221

221:                                              ; preds = %208, %117
  br label %222

222:                                              ; preds = %221, %50
  %223 = load i32, ptr %29, align 4
  %224 = add i32 %223, 1
  store i32 %224, ptr %29, align 4
  br label %32

225:                                              ; preds = %32
  ret void
}