; Function Attrs: nounwind uwtable
define internal fastcc void @zend_ast_export_encaps_list(ptr noundef %0, i8 noundef signext %1, ptr nocapture noundef readonly %2, i32 noundef %3) unnamed_addr #0 {
  %5 = getelementptr inbounds i8, ptr %2, i64 8
  %6 = load i32, ptr %5, align 8
  %.not84 = icmp eq i32 %6, 0
  br i1 %.not84, label %._crit_edge, label %.lr.ph

.lr.ph:                                           ; preds = %4
  %7 = getelementptr inbounds i8, ptr %2, i64 16
  %8 = getelementptr inbounds i8, ptr %0, i64 8
  br label %9

9:                                                ; preds = %.lr.ph, %71
  %indvars.iv = phi i64 [ 0, %.lr.ph ], [ %indvars.iv.next, %71 ]
  %10 = phi i32 [ %6, %.lr.ph ], [ %72, %71 ]
  %11 = getelementptr inbounds [1 x ptr], ptr %7, i64 0, i64 %indvars.iv
  %12 = load ptr, ptr %11, align 8
  %13 = load i16, ptr %12, align 8
  switch i16 %13, label %zend_ast_var_needs_braces.exit.thread [
    i16 64, label %14
    i16 256, label %17
  ]

14:                                               ; preds = %9
  %15 = getelementptr inbounds i8, ptr %12, i64 8
  %16 = load ptr, ptr %15, align 8
  tail call fastcc void @zend_ast_export_qstr(ptr noundef %0, i8 noundef signext %1, ptr noundef %16)
  br label %71

17:                                               ; preds = %9
  %18 = getelementptr inbounds i8, ptr %12, i64 8
  %19 = load ptr, ptr %18, align 8
  %20 = load i16, ptr %19, align 8
  %21 = icmp eq i16 %20, 64
  br i1 %21, label %22, label %zend_ast_var_needs_braces.exit.thread

22:                                               ; preds = %17
  %23 = add nuw nsw i64 %indvars.iv, 1
  %24 = zext i32 %10 to i64
  %25 = icmp eq i64 %23, %24
  br i1 %25, label %42, label %26

26:                                               ; preds = %22
  %27 = getelementptr inbounds [1 x ptr], ptr %7, i64 0, i64 %23
  %28 = load ptr, ptr %27, align 8
  %29 = load i16, ptr %28, align 8
  %.not = icmp eq i16 %29, 64
  br i1 %.not, label %30, label %42

30:                                               ; preds = %26
  %31 = getelementptr inbounds i8, ptr %28, i64 8
  %32 = load ptr, ptr %31, align 8
  %33 = getelementptr inbounds i8, ptr %32, i64 24
  %34 = load i8, ptr %33, align 8
  %35 = icmp eq i8 %34, 91
  br i1 %35, label %zend_ast_var_needs_braces.exit.thread, label %zend_ast_var_needs_braces.exit

zend_ast_var_needs_braces.exit:                   ; preds = %30
  %36 = icmp eq i8 %34, 95
  %37 = icmp ugt i8 %34, 126
  %or.cond.not.i.i = or i1 %36, %37
  %38 = add i8 %34, -48
  %or.cond5.i.i = icmp ult i8 %38, 10
  %or.cond21.i.i = or i1 %or.cond.not.i.i, %or.cond5.i.i
  %39 = and i8 %34, -33
  %40 = add i8 %39, -65
  %41 = icmp ult i8 %40, 26
  %or.cond23.i.i = or i1 %or.cond21.i.i, %41
  br i1 %or.cond23.i.i, label %zend_ast_var_needs_braces.exit.thread, label %42

42:                                               ; preds = %zend_ast_var_needs_braces.exit, %26, %22
  tail call fastcc void @zend_ast_export_ex(ptr noundef %0, ptr noundef nonnull %12, i32 noundef 0, i32 noundef %3)
  br label %71

zend_ast_var_needs_braces.exit.thread:            ; preds = %30, %9, %zend_ast_var_needs_braces.exit, %17
  %43 = load ptr, ptr %0, align 8
  %.not79 = icmp eq ptr %43, null
  br i1 %.not79, label %49, label %44

44:                                               ; preds = %zend_ast_var_needs_braces.exit.thread
  %45 = getelementptr inbounds i8, ptr %43, i64 16
  %46 = load i64, ptr %45, align 8
  %47 = add i64 %46, 1
  %48 = load i64, ptr %8, align 8
  %.not80 = icmp ult i64 %47, %48
  br i1 %.not80, label %50, label %49

49:                                               ; preds = %zend_ast_var_needs_braces.exit.thread, %44
  %.069 = phi i64 [ 1, %zend_ast_var_needs_braces.exit.thread ], [ %47, %44 ]
  tail call void @smart_str_erealloc(ptr noundef nonnull %0, i64 noundef %.069) #14
  %.pre = load ptr, ptr %0, align 8
  br label %50

50:                                               ; preds = %49, %44
  %51 = phi ptr [ %.pre, %49 ], [ %43, %44 ]
  %.170 = phi i64 [ %.069, %49 ], [ %47, %44 ]
  %52 = getelementptr inbounds i8, ptr %51, i64 24
  %53 = add i64 %.170, -1
  %54 = getelementptr inbounds [1 x i8], ptr %52, i64 0, i64 %53
  store i8 123, ptr %54, align 1
  %55 = load ptr, ptr %0, align 8
  %56 = getelementptr inbounds i8, ptr %55, i64 16
  store i64 %.170, ptr %56, align 8
  tail call fastcc void @zend_ast_export_ex(ptr noundef nonnull %0, ptr noundef nonnull %12, i32 noundef 0, i32 noundef %3)
  %57 = load ptr, ptr %0, align 8
  %.not81 = icmp eq ptr %57, null
  br i1 %.not81, label %63, label %58

58:                                               ; preds = %50
  %59 = getelementptr inbounds i8, ptr %57, i64 16
  %60 = load i64, ptr %59, align 8
  %61 = add i64 %60, 1
  %62 = load i64, ptr %8, align 8
  %.not82 = icmp ult i64 %61, %62
  br i1 %.not82, label %64, label %63

63:                                               ; preds = %50, %58
  %.0 = phi i64 [ 1, %50 ], [ %61, %58 ]
  tail call void @smart_str_erealloc(ptr noundef nonnull %0, i64 noundef %.0) #14
  %.pre86 = load ptr, ptr %0, align 8
  br label %64

64:                                               ; preds = %63, %58
  %65 = phi ptr [ %.pre86, %63 ], [ %57, %58 ]
  %.1 = phi i64 [ %.0, %63 ], [ %61, %58 ]
  %66 = getelementptr inbounds i8, ptr %65, i64 24
  %67 = add i64 %.1, -1
  %68 = getelementptr inbounds [1 x i8], ptr %66, i64 0, i64 %67
  store i8 125, ptr %68, align 1
  %69 = load ptr, ptr %0, align 8
  %70 = getelementptr inbounds i8, ptr %69, i64 16
  store i64 %.1, ptr %70, align 8
  br label %71

71:                                               ; preds = %42, %64, %14
  %indvars.iv.next = add nuw nsw i64 %indvars.iv, 1
  %72 = load i32, ptr %5, align 8
  %73 = zext i32 %72 to i64
  %74 = icmp ult i64 %indvars.iv.next, %73
  br i1 %74, label %9, label %._crit_edge

._crit_edge:                                      ; preds = %71, %4
  ret void
}